Archive member included to satisfy reference by file (symbol)

/usr/local/gcc-arm-none-eabi-5_2-2015q4/bin/../lib/gcc/arm-none-eabi/5.2.1/../../../../arm-none-eabi/lib/armv7-m/libm.a(lib_a-sf_cos.o)
                              /tmp/ccmkpq6i.ltrans0.ltrans.o (cosf)
/usr/local/gcc-arm-none-eabi-5_2-2015q4/bin/../lib/gcc/arm-none-eabi/5.2.1/../../../../arm-none-eabi/lib/armv7-m/libm.a(lib_a-sf_lrint.o)
                              /tmp/ccmkpq6i.ltrans0.ltrans.o (lrintf)
/usr/local/gcc-arm-none-eabi-5_2-2015q4/bin/../lib/gcc/arm-none-eabi/5.2.1/../../../../arm-none-eabi/lib/armv7-m/libm.a(lib_a-sf_sin.o)
                              /tmp/ccmkpq6i.ltrans0.ltrans.o (sinf)
/usr/local/gcc-arm-none-eabi-5_2-2015q4/bin/../lib/gcc/arm-none-eabi/5.2.1/../../../../arm-none-eabi/lib/armv7-m/libm.a(lib_a-wf_atan2.o)
                              /tmp/ccmkpq6i.ltrans0.ltrans.o (atan2f)
/usr/local/gcc-arm-none-eabi-5_2-2015q4/bin/../lib/gcc/arm-none-eabi/5.2.1/../../../../arm-none-eabi/lib/armv7-m/libm.a(lib_a-wf_sqrt.o)
                              /tmp/ccmkpq6i.ltrans0.ltrans.o (sqrtf)
/usr/local/gcc-arm-none-eabi-5_2-2015q4/bin/../lib/gcc/arm-none-eabi/5.2.1/../../../../arm-none-eabi/lib/armv7-m/libm.a(lib_a-ef_atan2.o)
                              /usr/local/gcc-arm-none-eabi-5_2-2015q4/bin/../lib/gcc/arm-none-eabi/5.2.1/../../../../arm-none-eabi/lib/armv7-m/libm.a(lib_a-wf_atan2.o) (__ieee754_atan2f)
/usr/local/gcc-arm-none-eabi-5_2-2015q4/bin/../lib/gcc/arm-none-eabi/5.2.1/../../../../arm-none-eabi/lib/armv7-m/libm.a(lib_a-ef_rem_pio2.o)
                              /usr/local/gcc-arm-none-eabi-5_2-2015q4/bin/../lib/gcc/arm-none-eabi/5.2.1/../../../../arm-none-eabi/lib/armv7-m/libm.a(lib_a-sf_cos.o) (__ieee754_rem_pio2f)
/usr/local/gcc-arm-none-eabi-5_2-2015q4/bin/../lib/gcc/arm-none-eabi/5.2.1/../../../../arm-none-eabi/lib/armv7-m/libm.a(lib_a-ef_sqrt.o)
                              /usr/local/gcc-arm-none-eabi-5_2-2015q4/bin/../lib/gcc/arm-none-eabi/5.2.1/../../../../arm-none-eabi/lib/armv7-m/libm.a(lib_a-wf_sqrt.o) (__ieee754_sqrtf)
/usr/local/gcc-arm-none-eabi-5_2-2015q4/bin/../lib/gcc/arm-none-eabi/5.2.1/../../../../arm-none-eabi/lib/armv7-m/libm.a(lib_a-kf_cos.o)
                              /usr/local/gcc-arm-none-eabi-5_2-2015q4/bin/../lib/gcc/arm-none-eabi/5.2.1/../../../../arm-none-eabi/lib/armv7-m/libm.a(lib_a-sf_cos.o) (__kernel_cosf)
/usr/local/gcc-arm-none-eabi-5_2-2015q4/bin/../lib/gcc/arm-none-eabi/5.2.1/../../../../arm-none-eabi/lib/armv7-m/libm.a(lib_a-kf_rem_pio2.o)
                              /usr/local/gcc-arm-none-eabi-5_2-2015q4/bin/../lib/gcc/arm-none-eabi/5.2.1/../../../../arm-none-eabi/lib/armv7-m/libm.a(lib_a-ef_rem_pio2.o) (__kernel_rem_pio2f)
/usr/local/gcc-arm-none-eabi-5_2-2015q4/bin/../lib/gcc/arm-none-eabi/5.2.1/../../../../arm-none-eabi/lib/armv7-m/libm.a(lib_a-kf_sin.o)
                              /usr/local/gcc-arm-none-eabi-5_2-2015q4/bin/../lib/gcc/arm-none-eabi/5.2.1/../../../../arm-none-eabi/lib/armv7-m/libm.a(lib_a-sf_cos.o) (__kernel_sinf)
/usr/local/gcc-arm-none-eabi-5_2-2015q4/bin/../lib/gcc/arm-none-eabi/5.2.1/../../../../arm-none-eabi/lib/armv7-m/libm.a(lib_a-s_lib_ver.o)
                              /usr/local/gcc-arm-none-eabi-5_2-2015q4/bin/../lib/gcc/arm-none-eabi/5.2.1/../../../../arm-none-eabi/lib/armv7-m/libm.a(lib_a-wf_sqrt.o) (__fdlib_version)
/usr/local/gcc-arm-none-eabi-5_2-2015q4/bin/../lib/gcc/arm-none-eabi/5.2.1/../../../../arm-none-eabi/lib/armv7-m/libm.a(lib_a-s_matherr.o)
                              /usr/local/gcc-arm-none-eabi-5_2-2015q4/bin/../lib/gcc/arm-none-eabi/5.2.1/../../../../arm-none-eabi/lib/armv7-m/libm.a(lib_a-wf_sqrt.o) (matherr)
/usr/local/gcc-arm-none-eabi-5_2-2015q4/bin/../lib/gcc/arm-none-eabi/5.2.1/../../../../arm-none-eabi/lib/armv7-m/libm.a(lib_a-sf_atan.o)
                              /usr/local/gcc-arm-none-eabi-5_2-2015q4/bin/../lib/gcc/arm-none-eabi/5.2.1/../../../../arm-none-eabi/lib/armv7-m/libm.a(lib_a-ef_atan2.o) (atanf)
/usr/local/gcc-arm-none-eabi-5_2-2015q4/bin/../lib/gcc/arm-none-eabi/5.2.1/../../../../arm-none-eabi/lib/armv7-m/libm.a(lib_a-sf_fabs.o)
                              /usr/local/gcc-arm-none-eabi-5_2-2015q4/bin/../lib/gcc/arm-none-eabi/5.2.1/../../../../arm-none-eabi/lib/armv7-m/libm.a(lib_a-ef_atan2.o) (fabsf)
/usr/local/gcc-arm-none-eabi-5_2-2015q4/bin/../lib/gcc/arm-none-eabi/5.2.1/../../../../arm-none-eabi/lib/armv7-m/libm.a(lib_a-sf_floor.o)
                              /usr/local/gcc-arm-none-eabi-5_2-2015q4/bin/../lib/gcc/arm-none-eabi/5.2.1/../../../../arm-none-eabi/lib/armv7-m/libm.a(lib_a-kf_rem_pio2.o) (floorf)
/usr/local/gcc-arm-none-eabi-5_2-2015q4/bin/../lib/gcc/arm-none-eabi/5.2.1/../../../../arm-none-eabi/lib/armv7-m/libm.a(lib_a-sf_fpclassify.o)
                              /usr/local/gcc-arm-none-eabi-5_2-2015q4/bin/../lib/gcc/arm-none-eabi/5.2.1/../../../../arm-none-eabi/lib/armv7-m/libm.a(lib_a-wf_sqrt.o) (__fpclassifyf)
/usr/local/gcc-arm-none-eabi-5_2-2015q4/bin/../lib/gcc/arm-none-eabi/5.2.1/../../../../arm-none-eabi/lib/armv7-m/libm.a(lib_a-sf_scalbn.o)
                              /usr/local/gcc-arm-none-eabi-5_2-2015q4/bin/../lib/gcc/arm-none-eabi/5.2.1/../../../../arm-none-eabi/lib/armv7-m/libm.a(lib_a-kf_rem_pio2.o) (scalbnf)
/usr/local/gcc-arm-none-eabi-5_2-2015q4/bin/../lib/gcc/arm-none-eabi/5.2.1/../../../../arm-none-eabi/lib/armv7-m/libm.a(lib_a-sf_copysign.o)
                              /usr/local/gcc-arm-none-eabi-5_2-2015q4/bin/../lib/gcc/arm-none-eabi/5.2.1/../../../../arm-none-eabi/lib/armv7-m/libm.a(lib_a-sf_scalbn.o) (copysignf)
/usr/local/gcc-arm-none-eabi-5_2-2015q4/bin/../lib/gcc/arm-none-eabi/5.2.1/../../../../arm-none-eabi/lib/armv7-m/libc_nano.a(lib_a-errno.o)
                              /usr/local/gcc-arm-none-eabi-5_2-2015q4/bin/../lib/gcc/arm-none-eabi/5.2.1/../../../../arm-none-eabi/lib/armv7-m/libm.a(lib_a-wf_sqrt.o) (__errno)
/usr/local/gcc-arm-none-eabi-5_2-2015q4/bin/../lib/gcc/arm-none-eabi/5.2.1/../../../../arm-none-eabi/lib/armv7-m/libc_nano.a(lib_a-impure.o)
                              /usr/local/gcc-arm-none-eabi-5_2-2015q4/bin/../lib/gcc/arm-none-eabi/5.2.1/../../../../arm-none-eabi/lib/armv7-m/libc_nano.a(lib_a-errno.o) (_impure_ptr)
/usr/local/gcc-arm-none-eabi-5_2-2015q4/bin/../lib/gcc/arm-none-eabi/5.2.1/armv7-m/libgcc.a(_arm_addsubdf3.o)
                              /tmp/ccmkpq6i.ltrans0.ltrans.o (__aeabi_dadd)
/usr/local/gcc-arm-none-eabi-5_2-2015q4/bin/../lib/gcc/arm-none-eabi/5.2.1/armv7-m/libgcc.a(_arm_muldivdf3.o)
                              /tmp/ccmkpq6i.ltrans0.ltrans.o (__aeabi_dmul)
/usr/local/gcc-arm-none-eabi-5_2-2015q4/bin/../lib/gcc/arm-none-eabi/5.2.1/armv7-m/libgcc.a(_arm_truncdfsf2.o)
                              /tmp/ccmkpq6i.ltrans0.ltrans.o (__aeabi_d2f)
/usr/local/gcc-arm-none-eabi-5_2-2015q4/bin/../lib/gcc/arm-none-eabi/5.2.1/armv7-m/libgcc.a(_arm_addsubsf3.o)
                              /tmp/ccmkpq6i.ltrans0.ltrans.o (__aeabi_fsub)
/usr/local/gcc-arm-none-eabi-5_2-2015q4/bin/../lib/gcc/arm-none-eabi/5.2.1/armv7-m/libgcc.a(_arm_muldivsf3.o)
                              /tmp/ccmkpq6i.ltrans0.ltrans.o (__aeabi_fmul)
/usr/local/gcc-arm-none-eabi-5_2-2015q4/bin/../lib/gcc/arm-none-eabi/5.2.1/armv7-m/libgcc.a(_arm_cmpsf2.o)
                              /tmp/ccmkpq6i.ltrans0.ltrans.o (__aeabi_fcmpeq)
/usr/local/gcc-arm-none-eabi-5_2-2015q4/bin/../lib/gcc/arm-none-eabi/5.2.1/armv7-m/libgcc.a(_arm_fixsfsi.o)
                              /tmp/ccmkpq6i.ltrans0.ltrans.o (__aeabi_f2iz)

Allocating common symbols
Common symbol       size              file

acc                 0x10              obj/NAZE/sensors.o (symbol from plugin)
lidarlite_available
                    0x1               obj/NAZE/drv_px4flow.o (symbol from plugin)
gyroADC             0x6               obj/NAZE/imu.o (symbol from plugin)
telemTemperature1   0x2               obj/NAZE/mw.o (symbol from plugin)
mAhdrawn            0x4               obj/NAZE/mw.o (symbol from plugin)
lookupThrottleRC    0x18              obj/NAZE/mw.o (symbol from plugin)
debug               0x8               obj/NAZE/mw.o (symbol from plugin)
accSum              0xc               obj/NAZE/imu.o (symbol from plugin)
accVelScale         0x4               obj/NAZE/imu.o (symbol from plugin)
accADC              0x6               obj/NAZE/imu.o (symbol from plugin)
magHold             0x2               obj/NAZE/sensors.o (symbol from plugin)
lidarlite_distance  0x2               obj/NAZE/drv_px4flow.o (symbol from plugin)
gyro                0x10              obj/NAZE/sensors.o (symbol from plugin)
timerConfigs        0x100             obj/NAZE/drv_timer.o (symbol from plugin)
EstAlt              0x4               obj/NAZE/imu.o (symbol from plugin)
magADC              0x6               obj/NAZE/imu.o (symbol from plugin)
vbat                0x2               obj/NAZE/mw.o (symbol from plugin)
batteryWarningVoltage
                    0x2               obj/NAZE/mw.o (symbol from plugin)
px4flow_available   0x1               obj/NAZE/drv_px4flow.o (symbol from plugin)
AltHold             0x4               obj/NAZE/imu.o (symbol from plugin)
accSmooth           0x6               obj/NAZE/imu.o (symbol from plugin)
px4flow_frame       0x16              obj/NAZE/drv_px4flow.o (symbol from plugin)
throttleAngleScale  0x4               obj/NAZE/imu.o (symbol from plugin)
dynI8               0x3               obj/NAZE/mw.o (symbol from plugin)
amperage            0x4               obj/NAZE/mw.o (symbol from plugin)
motor               0x8               obj/NAZE/mixer.o (symbol from plugin)
batteryCriticalVoltage
                    0x2               obj/NAZE/mw.o (symbol from plugin)
rcData              0x24              obj/NAZE/mw.o (symbol from plugin)
motor_disarmed      0x8               obj/NAZE/mixer.o (symbol from plugin)
mag                 0x10              obj/NAZE/sensors.o (symbol from plugin)
lookupPitchRollRC   0xe               obj/NAZE/mw.o (symbol from plugin)
armed               0x1               obj/NAZE/drv_px4flow.o (symbol from plugin)
fc_acc              0x4               obj/NAZE/imu.o (symbol from plugin)
EstG                0xc               obj/NAZE/imu.o (symbol from plugin)
heading             0x2               obj/NAZE/sensors.o (symbol from plugin)
useSmallAngle       0x1               obj/NAZE/drv_px4flow.o (symbol from plugin)

Discarded input sections

 .text          0x00000000        0x0 obj/NAZE/drv_adc.o (symbol from plugin)
 .text          0x00000000        0x0 /tmp/ccmkpq6i.ltrans0.ltrans.o
 .data          0x00000000        0x0 /tmp/ccmkpq6i.ltrans4.ltrans.o
 .text          0x00000000        0x0 obj/NAZE/drv_mpu6050.o (symbol from plugin)
 .text          0x00000000        0x0 obj/NAZE/drv_pwm.o (symbol from plugin)
 .text          0x00000000        0x0 obj/NAZE/drv_spi.o (symbol from plugin)
 .text          0x00000000        0x0 obj/NAZE/drv_timer.o (symbol from plugin)
 .text          0x00000000        0x0 obj/NAZE/drv_px4flow.o (symbol from plugin)
 .text          0x00000000        0x0 obj/NAZE/drv_lidarlite.o (symbol from plugin)
 .text          0x00000000        0x0 obj/NAZE/telemetry_common.o (symbol from plugin)
 .text          0x00000000        0x0 obj/NAZE/imu.o (symbol from plugin)
 .text          0x00000000        0x0 obj/NAZE/main.o (symbol from plugin)
 .text          0x00000000        0x0 obj/NAZE/mixer.o (symbol from plugin)
 .text          0x00000000        0x0 obj/NAZE/mw.o (symbol from plugin)
 .text          0x00000000        0x0 obj/NAZE/sensors.o (symbol from plugin)
 .text          0x00000000        0x0 obj/NAZE/serial.o (symbol from plugin)
 .text          0x00000000        0x0 obj/NAZE/rxmsp.o (symbol from plugin)
 .text          0x00000000        0x0 obj/NAZE/drv_gpio.o (symbol from plugin)
 .text          0x00000000        0x0 obj/NAZE/drv_i2c.o (symbol from plugin)
 .text          0x00000000        0x0 obj/NAZE/drv_system.o (symbol from plugin)
 .text          0x00000000        0x0 obj/NAZE/drv_serial.o (symbol from plugin)
 .text          0x00000000        0x0 obj/NAZE/drv_uart.o (symbol from plugin)
 .text          0x00000000        0x0 obj/NAZE/printf.o (symbol from plugin)
 .text          0x00000000        0x0 obj/NAZE/utils.o (symbol from plugin)
 .text          0x00000000       0x14 obj/NAZE/startup_stm32f10x_md_gcc.o
 .data          0x00000000        0x0 obj/NAZE/startup_stm32f10x_md_gcc.o
 .bss           0x00000000        0x0 obj/NAZE/startup_stm32f10x_md_gcc.o
 .text          0x00000000        0x0 obj/NAZE/core_cm3.o (symbol from plugin)
 .text          0x00000000        0x0 obj/NAZE/system_stm32f10x.o (symbol from plugin)
 .text          0x00000000        0x0 obj/NAZE/stm32f10x_dma.o (symbol from plugin)
 .text          0x00000000        0x0 obj/NAZE/stm32f10x_dbgmcu.o (symbol from plugin)
 .text          0x00000000        0x0 obj/NAZE/stm32f10x_iwdg.o (symbol from plugin)
 .text          0x00000000        0x0 obj/NAZE/stm32f10x_dac.o (symbol from plugin)
 .text          0x00000000        0x0 obj/NAZE/stm32f10x_can.o (symbol from plugin)
 .text          0x00000000        0x0 obj/NAZE/stm32f10x_rtc.o (symbol from plugin)
 .text          0x00000000        0x0 obj/NAZE/stm32f10x_pwr.o (symbol from plugin)
 .text          0x00000000        0x0 obj/NAZE/stm32f10x_i2c.o (symbol from plugin)
 .text          0x00000000        0x0 obj/NAZE/stm32f10x_sdio.o (symbol from plugin)
 .text          0x00000000        0x0 obj/NAZE/stm32f10x_rcc.o (symbol from plugin)
 .text          0x00000000        0x0 obj/NAZE/stm32f10x_flash.o (symbol from plugin)
 .text          0x00000000        0x0 obj/NAZE/stm32f10x_crc.o (symbol from plugin)
 .text          0x00000000        0x0 obj/NAZE/stm32f10x_usart.o (symbol from plugin)
 .text          0x00000000        0x0 obj/NAZE/stm32f10x_wwdg.o (symbol from plugin)
 .text          0x00000000        0x0 obj/NAZE/stm32f10x_cec.o (symbol from plugin)
 .text          0x00000000        0x0 obj/NAZE/misc.o (symbol from plugin)
 .text          0x00000000        0x0 obj/NAZE/stm32f10x_tim.o (symbol from plugin)
 .text          0x00000000        0x0 obj/NAZE/stm32f10x_adc.o (symbol from plugin)
 .text          0x00000000        0x0 obj/NAZE/stm32f10x_spi.o (symbol from plugin)
 .text          0x00000000        0x0 obj/NAZE/stm32f10x_bkp.o (symbol from plugin)
 .text          0x00000000        0x0 obj/NAZE/stm32f10x_exti.o (symbol from plugin)
 .text          0x00000000        0x0 obj/NAZE/stm32f10x_fsmc.o (symbol from plugin)
 .text          0x00000000        0x0 obj/NAZE/stm32f10x_gpio.o (symbol from plugin)
 .text          0x00000000        0x0 /usr/local/gcc-arm-none-eabi-5_2-2015q4/bin/../lib/gcc/arm-none-eabi/5.2.1/../../../../arm-none-eabi/lib/armv7-m/libm.a(lib_a-sf_cos.o)
 .data          0x00000000        0x0 /usr/local/gcc-arm-none-eabi-5_2-2015q4/bin/../lib/gcc/arm-none-eabi/5.2.1/../../../../arm-none-eabi/lib/armv7-m/libm.a(lib_a-sf_cos.o)
 .bss           0x00000000        0x0 /usr/local/gcc-arm-none-eabi-5_2-2015q4/bin/../lib/gcc/arm-none-eabi/5.2.1/../../../../arm-none-eabi/lib/armv7-m/libm.a(lib_a-sf_cos.o)
 .text          0x00000000        0x0 /usr/local/gcc-arm-none-eabi-5_2-2015q4/bin/../lib/gcc/arm-none-eabi/5.2.1/../../../../arm-none-eabi/lib/armv7-m/libm.a(lib_a-sf_lrint.o)
 .data          0x00000000        0x0 /usr/local/gcc-arm-none-eabi-5_2-2015q4/bin/../lib/gcc/arm-none-eabi/5.2.1/../../../../arm-none-eabi/lib/armv7-m/libm.a(lib_a-sf_lrint.o)
 .bss           0x00000000        0x0 /usr/local/gcc-arm-none-eabi-5_2-2015q4/bin/../lib/gcc/arm-none-eabi/5.2.1/../../../../arm-none-eabi/lib/armv7-m/libm.a(lib_a-sf_lrint.o)
 .text          0x00000000        0x0 /usr/local/gcc-arm-none-eabi-5_2-2015q4/bin/../lib/gcc/arm-none-eabi/5.2.1/../../../../arm-none-eabi/lib/armv7-m/libm.a(lib_a-sf_sin.o)
 .data          0x00000000        0x0 /usr/local/gcc-arm-none-eabi-5_2-2015q4/bin/../lib/gcc/arm-none-eabi/5.2.1/../../../../arm-none-eabi/lib/armv7-m/libm.a(lib_a-sf_sin.o)
 .bss           0x00000000        0x0 /usr/local/gcc-arm-none-eabi-5_2-2015q4/bin/../lib/gcc/arm-none-eabi/5.2.1/../../../../arm-none-eabi/lib/armv7-m/libm.a(lib_a-sf_sin.o)
 .text          0x00000000        0x0 /usr/local/gcc-arm-none-eabi-5_2-2015q4/bin/../lib/gcc/arm-none-eabi/5.2.1/../../../../arm-none-eabi/lib/armv7-m/libm.a(lib_a-wf_atan2.o)
 .data          0x00000000        0x0 /usr/local/gcc-arm-none-eabi-5_2-2015q4/bin/../lib/gcc/arm-none-eabi/5.2.1/../../../../arm-none-eabi/lib/armv7-m/libm.a(lib_a-wf_atan2.o)
 .bss           0x00000000        0x0 /usr/local/gcc-arm-none-eabi-5_2-2015q4/bin/../lib/gcc/arm-none-eabi/5.2.1/../../../../arm-none-eabi/lib/armv7-m/libm.a(lib_a-wf_atan2.o)
 .text          0x00000000        0x0 /usr/local/gcc-arm-none-eabi-5_2-2015q4/bin/../lib/gcc/arm-none-eabi/5.2.1/../../../../arm-none-eabi/lib/armv7-m/libm.a(lib_a-wf_sqrt.o)
 .data          0x00000000        0x0 /usr/local/gcc-arm-none-eabi-5_2-2015q4/bin/../lib/gcc/arm-none-eabi/5.2.1/../../../../arm-none-eabi/lib/armv7-m/libm.a(lib_a-wf_sqrt.o)
 .bss           0x00000000        0x0 /usr/local/gcc-arm-none-eabi-5_2-2015q4/bin/../lib/gcc/arm-none-eabi/5.2.1/../../../../arm-none-eabi/lib/armv7-m/libm.a(lib_a-wf_sqrt.o)
 .text          0x00000000        0x0 /usr/local/gcc-arm-none-eabi-5_2-2015q4/bin/../lib/gcc/arm-none-eabi/5.2.1/../../../../arm-none-eabi/lib/armv7-m/libm.a(lib_a-ef_atan2.o)
 .data          0x00000000        0x0 /usr/local/gcc-arm-none-eabi-5_2-2015q4/bin/../lib/gcc/arm-none-eabi/5.2.1/../../../../arm-none-eabi/lib/armv7-m/libm.a(lib_a-ef_atan2.o)
 .bss           0x00000000        0x0 /usr/local/gcc-arm-none-eabi-5_2-2015q4/bin/../lib/gcc/arm-none-eabi/5.2.1/../../../../arm-none-eabi/lib/armv7-m/libm.a(lib_a-ef_atan2.o)
 .text          0x00000000        0x0 /usr/local/gcc-arm-none-eabi-5_2-2015q4/bin/../lib/gcc/arm-none-eabi/5.2.1/../../../../arm-none-eabi/lib/armv7-m/libm.a(lib_a-ef_rem_pio2.o)
 .data          0x00000000        0x0 /usr/local/gcc-arm-none-eabi-5_2-2015q4/bin/../lib/gcc/arm-none-eabi/5.2.1/../../../../arm-none-eabi/lib/armv7-m/libm.a(lib_a-ef_rem_pio2.o)
 .bss           0x00000000        0x0 /usr/local/gcc-arm-none-eabi-5_2-2015q4/bin/../lib/gcc/arm-none-eabi/5.2.1/../../../../arm-none-eabi/lib/armv7-m/libm.a(lib_a-ef_rem_pio2.o)
 .text          0x00000000        0x0 /usr/local/gcc-arm-none-eabi-5_2-2015q4/bin/../lib/gcc/arm-none-eabi/5.2.1/../../../../arm-none-eabi/lib/armv7-m/libm.a(lib_a-ef_sqrt.o)
 .data          0x00000000        0x0 /usr/local/gcc-arm-none-eabi-5_2-2015q4/bin/../lib/gcc/arm-none-eabi/5.2.1/../../../../arm-none-eabi/lib/armv7-m/libm.a(lib_a-ef_sqrt.o)
 .bss           0x00000000        0x0 /usr/local/gcc-arm-none-eabi-5_2-2015q4/bin/../lib/gcc/arm-none-eabi/5.2.1/../../../../arm-none-eabi/lib/armv7-m/libm.a(lib_a-ef_sqrt.o)
 .text          0x00000000        0x0 /usr/local/gcc-arm-none-eabi-5_2-2015q4/bin/../lib/gcc/arm-none-eabi/5.2.1/../../../../arm-none-eabi/lib/armv7-m/libm.a(lib_a-kf_cos.o)
 .data          0x00000000        0x0 /usr/local/gcc-arm-none-eabi-5_2-2015q4/bin/../lib/gcc/arm-none-eabi/5.2.1/../../../../arm-none-eabi/lib/armv7-m/libm.a(lib_a-kf_cos.o)
 .bss           0x00000000        0x0 /usr/local/gcc-arm-none-eabi-5_2-2015q4/bin/../lib/gcc/arm-none-eabi/5.2.1/../../../../arm-none-eabi/lib/armv7-m/libm.a(lib_a-kf_cos.o)
 .text          0x00000000        0x0 /usr/local/gcc-arm-none-eabi-5_2-2015q4/bin/../lib/gcc/arm-none-eabi/5.2.1/../../../../arm-none-eabi/lib/armv7-m/libm.a(lib_a-kf_rem_pio2.o)
 .data          0x00000000        0x0 /usr/local/gcc-arm-none-eabi-5_2-2015q4/bin/../lib/gcc/arm-none-eabi/5.2.1/../../../../arm-none-eabi/lib/armv7-m/libm.a(lib_a-kf_rem_pio2.o)
 .bss           0x00000000        0x0 /usr/local/gcc-arm-none-eabi-5_2-2015q4/bin/../lib/gcc/arm-none-eabi/5.2.1/../../../../arm-none-eabi/lib/armv7-m/libm.a(lib_a-kf_rem_pio2.o)
 .text          0x00000000        0x0 /usr/local/gcc-arm-none-eabi-5_2-2015q4/bin/../lib/gcc/arm-none-eabi/5.2.1/../../../../arm-none-eabi/lib/armv7-m/libm.a(lib_a-kf_sin.o)
 .data          0x00000000        0x0 /usr/local/gcc-arm-none-eabi-5_2-2015q4/bin/../lib/gcc/arm-none-eabi/5.2.1/../../../../arm-none-eabi/lib/armv7-m/libm.a(lib_a-kf_sin.o)
 .bss           0x00000000        0x0 /usr/local/gcc-arm-none-eabi-5_2-2015q4/bin/../lib/gcc/arm-none-eabi/5.2.1/../../../../arm-none-eabi/lib/armv7-m/libm.a(lib_a-kf_sin.o)
 .text          0x00000000        0x0 /usr/local/gcc-arm-none-eabi-5_2-2015q4/bin/../lib/gcc/arm-none-eabi/5.2.1/../../../../arm-none-eabi/lib/armv7-m/libm.a(lib_a-s_lib_ver.o)
 .data          0x00000000        0x0 /usr/local/gcc-arm-none-eabi-5_2-2015q4/bin/../lib/gcc/arm-none-eabi/5.2.1/../../../../arm-none-eabi/lib/armv7-m/libm.a(lib_a-s_lib_ver.o)
 .bss           0x00000000        0x0 /usr/local/gcc-arm-none-eabi-5_2-2015q4/bin/../lib/gcc/arm-none-eabi/5.2.1/../../../../arm-none-eabi/lib/armv7-m/libm.a(lib_a-s_lib_ver.o)
 .text          0x00000000        0x0 /usr/local/gcc-arm-none-eabi-5_2-2015q4/bin/../lib/gcc/arm-none-eabi/5.2.1/../../../../arm-none-eabi/lib/armv7-m/libm.a(lib_a-s_matherr.o)
 .data          0x00000000        0x0 /usr/local/gcc-arm-none-eabi-5_2-2015q4/bin/../lib/gcc/arm-none-eabi/5.2.1/../../../../arm-none-eabi/lib/armv7-m/libm.a(lib_a-s_matherr.o)
 .bss           0x00000000        0x0 /usr/local/gcc-arm-none-eabi-5_2-2015q4/bin/../lib/gcc/arm-none-eabi/5.2.1/../../../../arm-none-eabi/lib/armv7-m/libm.a(lib_a-s_matherr.o)
 .text          0x00000000        0x0 /usr/local/gcc-arm-none-eabi-5_2-2015q4/bin/../lib/gcc/arm-none-eabi/5.2.1/../../../../arm-none-eabi/lib/armv7-m/libm.a(lib_a-sf_atan.o)
 .data          0x00000000        0x0 /usr/local/gcc-arm-none-eabi-5_2-2015q4/bin/../lib/gcc/arm-none-eabi/5.2.1/../../../../arm-none-eabi/lib/armv7-m/libm.a(lib_a-sf_atan.o)
 .bss           0x00000000        0x0 /usr/local/gcc-arm-none-eabi-5_2-2015q4/bin/../lib/gcc/arm-none-eabi/5.2.1/../../../../arm-none-eabi/lib/armv7-m/libm.a(lib_a-sf_atan.o)
 .text          0x00000000        0x0 /usr/local/gcc-arm-none-eabi-5_2-2015q4/bin/../lib/gcc/arm-none-eabi/5.2.1/../../../../arm-none-eabi/lib/armv7-m/libm.a(lib_a-sf_fabs.o)
 .data          0x00000000        0x0 /usr/local/gcc-arm-none-eabi-5_2-2015q4/bin/../lib/gcc/arm-none-eabi/5.2.1/../../../../arm-none-eabi/lib/armv7-m/libm.a(lib_a-sf_fabs.o)
 .bss           0x00000000        0x0 /usr/local/gcc-arm-none-eabi-5_2-2015q4/bin/../lib/gcc/arm-none-eabi/5.2.1/../../../../arm-none-eabi/lib/armv7-m/libm.a(lib_a-sf_fabs.o)
 .text          0x00000000        0x0 /usr/local/gcc-arm-none-eabi-5_2-2015q4/bin/../lib/gcc/arm-none-eabi/5.2.1/../../../../arm-none-eabi/lib/armv7-m/libm.a(lib_a-sf_floor.o)
 .data          0x00000000        0x0 /usr/local/gcc-arm-none-eabi-5_2-2015q4/bin/../lib/gcc/arm-none-eabi/5.2.1/../../../../arm-none-eabi/lib/armv7-m/libm.a(lib_a-sf_floor.o)
 .bss           0x00000000        0x0 /usr/local/gcc-arm-none-eabi-5_2-2015q4/bin/../lib/gcc/arm-none-eabi/5.2.1/../../../../arm-none-eabi/lib/armv7-m/libm.a(lib_a-sf_floor.o)
 .text          0x00000000        0x0 /usr/local/gcc-arm-none-eabi-5_2-2015q4/bin/../lib/gcc/arm-none-eabi/5.2.1/../../../../arm-none-eabi/lib/armv7-m/libm.a(lib_a-sf_fpclassify.o)
 .data          0x00000000        0x0 /usr/local/gcc-arm-none-eabi-5_2-2015q4/bin/../lib/gcc/arm-none-eabi/5.2.1/../../../../arm-none-eabi/lib/armv7-m/libm.a(lib_a-sf_fpclassify.o)
 .bss           0x00000000        0x0 /usr/local/gcc-arm-none-eabi-5_2-2015q4/bin/../lib/gcc/arm-none-eabi/5.2.1/../../../../arm-none-eabi/lib/armv7-m/libm.a(lib_a-sf_fpclassify.o)
 .text          0x00000000        0x0 /usr/local/gcc-arm-none-eabi-5_2-2015q4/bin/../lib/gcc/arm-none-eabi/5.2.1/../../../../arm-none-eabi/lib/armv7-m/libm.a(lib_a-sf_scalbn.o)
 .data          0x00000000        0x0 /usr/local/gcc-arm-none-eabi-5_2-2015q4/bin/../lib/gcc/arm-none-eabi/5.2.1/../../../../arm-none-eabi/lib/armv7-m/libm.a(lib_a-sf_scalbn.o)
 .bss           0x00000000        0x0 /usr/local/gcc-arm-none-eabi-5_2-2015q4/bin/../lib/gcc/arm-none-eabi/5.2.1/../../../../arm-none-eabi/lib/armv7-m/libm.a(lib_a-sf_scalbn.o)
 .text          0x00000000        0x0 /usr/local/gcc-arm-none-eabi-5_2-2015q4/bin/../lib/gcc/arm-none-eabi/5.2.1/../../../../arm-none-eabi/lib/armv7-m/libm.a(lib_a-sf_copysign.o)
 .data          0x00000000        0x0 /usr/local/gcc-arm-none-eabi-5_2-2015q4/bin/../lib/gcc/arm-none-eabi/5.2.1/../../../../arm-none-eabi/lib/armv7-m/libm.a(lib_a-sf_copysign.o)
 .bss           0x00000000        0x0 /usr/local/gcc-arm-none-eabi-5_2-2015q4/bin/../lib/gcc/arm-none-eabi/5.2.1/../../../../arm-none-eabi/lib/armv7-m/libm.a(lib_a-sf_copysign.o)
 .text          0x00000000        0x0 /usr/local/gcc-arm-none-eabi-5_2-2015q4/bin/../lib/gcc/arm-none-eabi/5.2.1/../../../../arm-none-eabi/lib/armv7-m/libc_nano.a(lib_a-errno.o)
 .data          0x00000000        0x0 /usr/local/gcc-arm-none-eabi-5_2-2015q4/bin/../lib/gcc/arm-none-eabi/5.2.1/../../../../arm-none-eabi/lib/armv7-m/libc_nano.a(lib_a-errno.o)
 .bss           0x00000000        0x0 /usr/local/gcc-arm-none-eabi-5_2-2015q4/bin/../lib/gcc/arm-none-eabi/5.2.1/../../../../arm-none-eabi/lib/armv7-m/libc_nano.a(lib_a-errno.o)
 .text          0x00000000        0x0 /usr/local/gcc-arm-none-eabi-5_2-2015q4/bin/../lib/gcc/arm-none-eabi/5.2.1/../../../../arm-none-eabi/lib/armv7-m/libc_nano.a(lib_a-impure.o)
 .data          0x00000000        0x0 /usr/local/gcc-arm-none-eabi-5_2-2015q4/bin/../lib/gcc/arm-none-eabi/5.2.1/../../../../arm-none-eabi/lib/armv7-m/libc_nano.a(lib_a-impure.o)
 .bss           0x00000000        0x0 /usr/local/gcc-arm-none-eabi-5_2-2015q4/bin/../lib/gcc/arm-none-eabi/5.2.1/../../../../arm-none-eabi/lib/armv7-m/libc_nano.a(lib_a-impure.o)
 .rodata._global_impure_ptr
                0x00000000        0x4 /usr/local/gcc-arm-none-eabi-5_2-2015q4/bin/../lib/gcc/arm-none-eabi/5.2.1/../../../../arm-none-eabi/lib/armv7-m/libc_nano.a(lib_a-impure.o)
 .data          0x00000000        0x0 /usr/local/gcc-arm-none-eabi-5_2-2015q4/bin/../lib/gcc/arm-none-eabi/5.2.1/armv7-m/libgcc.a(_arm_addsubdf3.o)
 .bss           0x00000000        0x0 /usr/local/gcc-arm-none-eabi-5_2-2015q4/bin/../lib/gcc/arm-none-eabi/5.2.1/armv7-m/libgcc.a(_arm_addsubdf3.o)
 .data          0x00000000        0x0 /usr/local/gcc-arm-none-eabi-5_2-2015q4/bin/../lib/gcc/arm-none-eabi/5.2.1/armv7-m/libgcc.a(_arm_muldivdf3.o)
 .bss           0x00000000        0x0 /usr/local/gcc-arm-none-eabi-5_2-2015q4/bin/../lib/gcc/arm-none-eabi/5.2.1/armv7-m/libgcc.a(_arm_muldivdf3.o)
 .data          0x00000000        0x0 /usr/local/gcc-arm-none-eabi-5_2-2015q4/bin/../lib/gcc/arm-none-eabi/5.2.1/armv7-m/libgcc.a(_arm_truncdfsf2.o)
 .bss           0x00000000        0x0 /usr/local/gcc-arm-none-eabi-5_2-2015q4/bin/../lib/gcc/arm-none-eabi/5.2.1/armv7-m/libgcc.a(_arm_truncdfsf2.o)
 .data          0x00000000        0x0 /usr/local/gcc-arm-none-eabi-5_2-2015q4/bin/../lib/gcc/arm-none-eabi/5.2.1/armv7-m/libgcc.a(_arm_addsubsf3.o)
 .bss           0x00000000        0x0 /usr/local/gcc-arm-none-eabi-5_2-2015q4/bin/../lib/gcc/arm-none-eabi/5.2.1/armv7-m/libgcc.a(_arm_addsubsf3.o)
 .data          0x00000000        0x0 /usr/local/gcc-arm-none-eabi-5_2-2015q4/bin/../lib/gcc/arm-none-eabi/5.2.1/armv7-m/libgcc.a(_arm_muldivsf3.o)
 .bss           0x00000000        0x0 /usr/local/gcc-arm-none-eabi-5_2-2015q4/bin/../lib/gcc/arm-none-eabi/5.2.1/armv7-m/libgcc.a(_arm_muldivsf3.o)
 .data          0x00000000        0x0 /usr/local/gcc-arm-none-eabi-5_2-2015q4/bin/../lib/gcc/arm-none-eabi/5.2.1/armv7-m/libgcc.a(_arm_cmpsf2.o)
 .bss           0x00000000        0x0 /usr/local/gcc-arm-none-eabi-5_2-2015q4/bin/../lib/gcc/arm-none-eabi/5.2.1/armv7-m/libgcc.a(_arm_cmpsf2.o)
 .data          0x00000000        0x0 /usr/local/gcc-arm-none-eabi-5_2-2015q4/bin/../lib/gcc/arm-none-eabi/5.2.1/armv7-m/libgcc.a(_arm_fixsfsi.o)
 .bss           0x00000000        0x0 /usr/local/gcc-arm-none-eabi-5_2-2015q4/bin/../lib/gcc/arm-none-eabi/5.2.1/armv7-m/libgcc.a(_arm_fixsfsi.o)

Memory Configuration

Name             Origin             Length             Attributes
FLASH            0x08000000         0x0001f800         xr
RAM              0x20000000         0x00005000         xrw
MEMORY_B1        0x60000000         0x00000000         xr
*default*        0x00000000         0xffffffff

Linker script and memory map

LOAD obj/NAZE/drv_adc.o
LOAD /tmp/ccmkpq6i.ltrans0.ltrans.o
LOAD /tmp/ccmkpq6i.ltrans1.ltrans.o
LOAD /tmp/ccmkpq6i.ltrans2.ltrans.o
LOAD /tmp/ccmkpq6i.ltrans3.ltrans.o
LOAD /tmp/ccmkpq6i.ltrans4.ltrans.o
LOAD obj/NAZE/drv_mpu6050.o
LOAD obj/NAZE/drv_pwm.o
LOAD obj/NAZE/drv_spi.o
LOAD obj/NAZE/drv_timer.o
LOAD obj/NAZE/drv_px4flow.o
LOAD obj/NAZE/drv_lidarlite.o
LOAD obj/NAZE/telemetry_common.o
LOAD obj/NAZE/imu.o
LOAD obj/NAZE/main.o
LOAD obj/NAZE/mixer.o
LOAD obj/NAZE/mw.o
LOAD obj/NAZE/sensors.o
LOAD obj/NAZE/serial.o
LOAD obj/NAZE/rxmsp.o
LOAD obj/NAZE/drv_gpio.o
LOAD obj/NAZE/drv_i2c.o
LOAD obj/NAZE/drv_system.o
LOAD obj/NAZE/drv_serial.o
LOAD obj/NAZE/drv_uart.o
LOAD obj/NAZE/printf.o
LOAD obj/NAZE/utils.o
LOAD obj/NAZE/startup_stm32f10x_md_gcc.o
LOAD obj/NAZE/core_cm3.o
LOAD obj/NAZE/system_stm32f10x.o
LOAD obj/NAZE/stm32f10x_dma.o
LOAD obj/NAZE/stm32f10x_dbgmcu.o
LOAD obj/NAZE/stm32f10x_iwdg.o
LOAD obj/NAZE/stm32f10x_dac.o
LOAD obj/NAZE/stm32f10x_can.o
LOAD obj/NAZE/stm32f10x_rtc.o
LOAD obj/NAZE/stm32f10x_pwr.o
LOAD obj/NAZE/stm32f10x_i2c.o
LOAD obj/NAZE/stm32f10x_sdio.o
LOAD obj/NAZE/stm32f10x_rcc.o
LOAD obj/NAZE/stm32f10x_flash.o
LOAD obj/NAZE/stm32f10x_crc.o
LOAD obj/NAZE/stm32f10x_usart.o
LOAD obj/NAZE/stm32f10x_wwdg.o
LOAD obj/NAZE/stm32f10x_cec.o
LOAD obj/NAZE/misc.o
LOAD obj/NAZE/stm32f10x_tim.o
LOAD obj/NAZE/stm32f10x_adc.o
LOAD obj/NAZE/stm32f10x_spi.o
LOAD obj/NAZE/stm32f10x_bkp.o
LOAD obj/NAZE/stm32f10x_exti.o
LOAD obj/NAZE/stm32f10x_fsmc.o
LOAD obj/NAZE/stm32f10x_gpio.o
LOAD /usr/local/gcc-arm-none-eabi-5_2-2015q4/bin/../lib/gcc/arm-none-eabi/5.2.1/../../../../arm-none-eabi/lib/armv7-m/libm.a
LOAD /usr/local/gcc-arm-none-eabi-5_2-2015q4/bin/../lib/gcc/arm-none-eabi/5.2.1/../../../../arm-none-eabi/lib/armv7-m/libc_nano.a
LOAD /usr/local/gcc-arm-none-eabi-5_2-2015q4/bin/../lib/gcc/arm-none-eabi/5.2.1/../../../../arm-none-eabi/lib/armv7-m/libnosys.a
START GROUP
LOAD /usr/local/gcc-arm-none-eabi-5_2-2015q4/bin/../lib/gcc/arm-none-eabi/5.2.1/armv7-m/libgcc.a
LOAD /usr/local/gcc-arm-none-eabi-5_2-2015q4/bin/../lib/gcc/arm-none-eabi/5.2.1/../../../../arm-none-eabi/lib/armv7-m/libg_nano.a
LOAD /usr/local/gcc-arm-none-eabi-5_2-2015q4/bin/../lib/gcc/arm-none-eabi/5.2.1/../../../../arm-none-eabi/lib/armv7-m/libc_nano.a
END GROUP
START GROUP
LOAD /usr/local/gcc-arm-none-eabi-5_2-2015q4/bin/../lib/gcc/arm-none-eabi/5.2.1/armv7-m/libgcc.a
LOAD /usr/local/gcc-arm-none-eabi-5_2-2015q4/bin/../lib/gcc/arm-none-eabi/5.2.1/../../../../arm-none-eabi/lib/armv7-m/libc_nano.a
END GROUP
                0x20005000                _estack = 0x20005000
                0x00000000                _Min_Heap_Size = 0x0
                0x00000400                _Min_Stack_Size = 0x400

.isr_vector     0x08000000      0x10c
                0x08000000                . = ALIGN (0x4)
 *(.isr_vector)
 .isr_vector    0x08000000      0x10c obj/NAZE/startup_stm32f10x_md_gcc.o
                0x08000000                g_pfnVectors
                0x0800010c                . = ALIGN (0x4)

.text           0x08000110     0x5da0
                0x08000110                . = ALIGN (0x4)
 *(.text)
 .text          0x08000110      0x878 /tmp/ccmkpq6i.ltrans1.ltrans.o
                0x08000110                uartSetMode
                0x08000112                beepRev5.lto_priv.91
                0x08000128                beepRev4.lto_priv.92
                0x080003e0                uartSetBaudRate
                0x0800042e                uartStartTxDMA.lto_priv.63
                0x08000464                systemBeep
                0x08000470                micros
                0x080004b6                delay
                0x080004ca                failureMode
                0x0800050c                SysTick_Handler
                0x0800051c                I2C2_EV_IRQHandler
                0x0800051e                I2C1_EV_IRQHandler
                0x08000520                gpioInit
                0x08000596                i2cInit
                0x08000818                I2C2_ER_IRQHandler
                0x0800081a                I2C1_ER_IRQHandler
                0x0800081c                i2cHandleHardwareFailure.lto_priv.62
                0x08000838                i2cRead
                0x080008e4                headSerialResponse
                0x08000924                headSerialReply
                0x0800092a                read16
                0x0800094c                serialize32
                0x08000970                serialize16
 .text          0x08000988      0x740 /tmp/ccmkpq6i.ltrans2.ltrans.o
                0x08000988                _putc.lto_priv.76
                0x080009e8                pwmWriteStandard.lto_priv.85
                0x08000a48                ppmCallback.lto_priv.83
                0x08000c94                pwmCallback.lto_priv.84
                0x08000cfc                mpuGyroInit.lto_priv.89
                0x08000d08                mpuAccInit.lto_priv.87
                0x08000d14                mpuGyroRead.lto_priv.90
                0x08000d7c                mpuAccRead.lto_priv.88
                0x08000dd0                rotateV
                0x08000f2a                TIM4_IRQHandler
                0x08000f34                TIM3_IRQHandler
                0x08000f40                TIM2_IRQHandler
                0x08000f48                TIM1_CC_IRQHandler
                0x08000f54                spiTransferByte.part.1.lto_priv.97
                0x08000f7c                pwmInConfig.lto_priv.95
                0x080010b0                mpuWriteRegisterI2C.lto_priv.96
 .text          0x080010c8      0x618 /tmp/ccmkpq6i.ltrans3.ltrans.o
                0x080010c8                TIM_GetCapture4
                0x080010d0                TIM_GetCapture3
                0x080010d6                TIM_GetCapture2
                0x080010dc                TIM_GetCapture1
                0x080010e2                uartRead
                0x08001114                isUartTransmitBufferEmpty
                0x0800112a                uartTotalBytesWaiting
                0x08001142                uartWrite
                0x08001178                i2cWriteBuffer.constprop.48
                0x080011e8                configTimeBase.constprop.37
                0x0800128c                applyDeadband.constprop.19
                0x080012aa                blinkLED.constprop.18
                0x080012e4                rccWriteBkpDr.constprop.15
                0x08001314                NVIC_Init.part.0.lto_priv.74
                0x0800135c                RCC_GetClocksFreq
                0x080013ec                USART_Init
                0x08001494                DMA_Init
                0x080014d0                DMA_DeInit
                0x080015c0                SystemInit
                0x0800160c                alignSensors
                0x08001676                USART1_IRQHandler
                0x080016ac                DMA1_Channel4_IRQHandler
 .text          0x080016e0      0x218 /tmp/ccmkpq6i.ltrans4.ltrans.o
                0x080016e0                pidMultiWii.lto_priv.94
                0x080018bc                pwmReadRawRC
                0x080018d8                serialize8
 .text          0x080018f8      0x370 /usr/local/gcc-arm-none-eabi-5_2-2015q4/bin/../lib/gcc/arm-none-eabi/5.2.1/armv7-m/libgcc.a(_arm_addsubdf3.o)
                0x080018f8                __aeabi_drsub
                0x08001900                __aeabi_dsub
                0x08001900                __subdf3
                0x08001904                __adddf3
                0x08001904                __aeabi_dadd
                0x08001b7c                __aeabi_ui2d
                0x08001b7c                __floatunsidf
                0x08001b9c                __floatsidf
                0x08001b9c                __aeabi_i2d
                0x08001bc0                __extendsfdf2
                0x08001bc0                __aeabi_f2d
                0x08001bfc                __aeabi_ul2d
                0x08001bfc                __floatundidf
                0x08001c0c                __floatdidf
                0x08001c0c                __aeabi_l2d
 .text          0x08001c68      0x424 /usr/local/gcc-arm-none-eabi-5_2-2015q4/bin/../lib/gcc/arm-none-eabi/5.2.1/armv7-m/libgcc.a(_arm_muldivdf3.o)
                0x08001c68                __aeabi_dmul
                0x08001c68                __muldf3
                0x08001ebc                __aeabi_ddiv
                0x08001ebc                __divdf3
 .text          0x0800208c       0xa0 /usr/local/gcc-arm-none-eabi-5_2-2015q4/bin/../lib/gcc/arm-none-eabi/5.2.1/armv7-m/libgcc.a(_arm_truncdfsf2.o)
                0x0800208c                __aeabi_d2f
                0x0800208c                __truncdfsf2
 .text          0x0800212c      0x21c /usr/local/gcc-arm-none-eabi-5_2-2015q4/bin/../lib/gcc/arm-none-eabi/5.2.1/armv7-m/libgcc.a(_arm_addsubsf3.o)
                0x0800212c                __aeabi_frsub
                0x08002134                __subsf3
                0x08002134                __aeabi_fsub
                0x08002138                __aeabi_fadd
                0x08002138                __addsf3
                0x08002298                __aeabi_ui2f
                0x08002298                __floatunsisf
                0x080022a0                __aeabi_i2f
                0x080022a0                __floatsisf
                0x080022bc                __floatundisf
                0x080022bc                __aeabi_ul2f
                0x080022cc                __floatdisf
                0x080022cc                __aeabi_l2f
 .text          0x08002348      0x2a0 /usr/local/gcc-arm-none-eabi-5_2-2015q4/bin/../lib/gcc/arm-none-eabi/5.2.1/armv7-m/libgcc.a(_arm_muldivsf3.o)
                0x08002348                __mulsf3
                0x08002348                __aeabi_fmul
                0x080024b0                __divsf3
                0x080024b0                __aeabi_fdiv
 .text          0x080025e8       0xec /usr/local/gcc-arm-none-eabi-5_2-2015q4/bin/../lib/gcc/arm-none-eabi/5.2.1/armv7-m/libgcc.a(_arm_cmpsf2.o)
                0x080025e8                __gtsf2
                0x080025e8                __gesf2
                0x080025f0                __lesf2
                0x080025f0                __ltsf2
                0x080025f8                __nesf2
                0x080025f8                __eqsf2
                0x080025f8                __cmpsf2
                0x08002658                __aeabi_cfrcmple
                0x08002660                __aeabi_cfcmple
                0x08002660                __aeabi_cfcmpeq
                0x08002670                __aeabi_fcmpeq
                0x08002684                __aeabi_fcmplt
                0x08002698                __aeabi_fcmple
                0x080026ac                __aeabi_fcmpge
                0x080026c0                __aeabi_fcmpgt
 .text          0x080026d4       0x4c /usr/local/gcc-arm-none-eabi-5_2-2015q4/bin/../lib/gcc/arm-none-eabi/5.2.1/armv7-m/libgcc.a(_arm_fixsfsi.o)
                0x080026d4                __fixsfsi
                0x080026d4                __aeabi_f2iz
 *(.text*)
 .text.startup  0x08002720     0x1d68 /tmp/ccmkpq6i.ltrans0.ltrans.o
                0x08002720                main
 .text.Reset_Handler
                0x08004488       0xa0 obj/NAZE/startup_stm32f10x_md_gcc.o
                0x08004488                Reset_Handler
 .text.Default_Handler
                0x08004528        0x2 obj/NAZE/startup_stm32f10x_md_gcc.o
                0x08004528                EXTI2_IRQHandler
                0x08004528                DebugMon_Handler
                0x08004528                HardFault_Handler
                0x08004528                PVD_IRQHandler
                0x08004528                PendSV_Handler
                0x08004528                NMI_Handler
                0x08004528                EXTI3_IRQHandler
                0x08004528                EXTI0_IRQHandler
                0x08004528                UsageFault_Handler
                0x08004528                ADC1_2_IRQHandler
                0x08004528                SPI1_IRQHandler
                0x08004528                TAMPER_IRQHandler
                0x08004528                USART3_IRQHandler
                0x08004528                RTC_IRQHandler
                0x08004528                DMA1_Channel7_IRQHandler
                0x08004528                CAN1_RX1_IRQHandler
                0x08004528                DMA1_Channel6_IRQHandler
                0x08004528                RCC_IRQHandler
                0x08004528                TIM1_TRG_COM_IRQHandler
                0x08004528                DMA1_Channel1_IRQHandler
                0x08004528                Default_Handler
                0x08004528                EXTI15_10_IRQHandler
                0x08004528                EXTI9_5_IRQHandler
                0x08004528                SPI2_IRQHandler
                0x08004528                MemManage_Handler
                0x08004528                SVC_Handler
                0x08004528                DMA1_Channel5_IRQHandler
                0x08004528                EXTI4_IRQHandler
                0x08004528                USB_LP_CAN1_RX0_IRQHandler
                0x08004528                USB_HP_CAN1_TX_IRQHandler
                0x08004528                DMA1_Channel3_IRQHandler
                0x08004528                TIM1_UP_IRQHandler
                0x08004528                WWDG_IRQHandler
                0x08004528                TIM1_BRK_IRQHandler
                0x08004528                EXTI1_IRQHandler
                0x08004528                RTCAlarm_IRQHandler
                0x08004528                USART2_IRQHandler
                0x08004528                DMA1_Channel2_IRQHandler
                0x08004528                CAN1_SCE_IRQHandler
                0x08004528                FLASH_IRQHandler
                0x08004528                BusFault_Handler
                0x08004528                USBWakeUp_IRQHandler
 *fill*         0x0800452a        0x2 
 .text.cosf     0x0800452c       0x78 /usr/local/gcc-arm-none-eabi-5_2-2015q4/bin/../lib/gcc/arm-none-eabi/5.2.1/../../../../arm-none-eabi/lib/armv7-m/libm.a(lib_a-sf_cos.o)
                0x0800452c                cosf
 .text.lrintf   0x080045a4       0x78 /usr/local/gcc-arm-none-eabi-5_2-2015q4/bin/../lib/gcc/arm-none-eabi/5.2.1/../../../../arm-none-eabi/lib/armv7-m/libm.a(lib_a-sf_lrint.o)
                0x080045a4                lrintf
 .text.sinf     0x0800461c       0x7c /usr/local/gcc-arm-none-eabi-5_2-2015q4/bin/../lib/gcc/arm-none-eabi/5.2.1/../../../../arm-none-eabi/lib/armv7-m/libm.a(lib_a-sf_sin.o)
                0x0800461c                sinf
 .text.atan2f   0x08004698        0x4 /usr/local/gcc-arm-none-eabi-5_2-2015q4/bin/../lib/gcc/arm-none-eabi/5.2.1/../../../../arm-none-eabi/lib/armv7-m/libm.a(lib_a-wf_atan2.o)
                0x08004698                atan2f
 .text.sqrtf    0x0800469c       0x98 /usr/local/gcc-arm-none-eabi-5_2-2015q4/bin/../lib/gcc/arm-none-eabi/5.2.1/../../../../arm-none-eabi/lib/armv7-m/libm.a(lib_a-wf_sqrt.o)
                0x0800469c                sqrtf
 .text.__ieee754_atan2f
                0x08004734      0x124 /usr/local/gcc-arm-none-eabi-5_2-2015q4/bin/../lib/gcc/arm-none-eabi/5.2.1/../../../../arm-none-eabi/lib/armv7-m/libm.a(lib_a-ef_atan2.o)
                0x08004734                __ieee754_atan2f
 .text.__ieee754_rem_pio2f
                0x08004858      0x2e4 /usr/local/gcc-arm-none-eabi-5_2-2015q4/bin/../lib/gcc/arm-none-eabi/5.2.1/../../../../arm-none-eabi/lib/armv7-m/libm.a(lib_a-ef_rem_pio2.o)
                0x08004858                __ieee754_rem_pio2f
 .text.__ieee754_sqrtf
                0x08004b3c       0xa8 /usr/local/gcc-arm-none-eabi-5_2-2015q4/bin/../lib/gcc/arm-none-eabi/5.2.1/../../../../arm-none-eabi/lib/armv7-m/libm.a(lib_a-ef_sqrt.o)
                0x08004b3c                __ieee754_sqrtf
 .text.__kernel_cosf
                0x08004be4      0x188 /usr/local/gcc-arm-none-eabi-5_2-2015q4/bin/../lib/gcc/arm-none-eabi/5.2.1/../../../../arm-none-eabi/lib/armv7-m/libm.a(lib_a-kf_cos.o)
                0x08004be4                __kernel_cosf
 .text.__kernel_rem_pio2f
                0x08004d6c      0x6a8 /usr/local/gcc-arm-none-eabi-5_2-2015q4/bin/../lib/gcc/arm-none-eabi/5.2.1/../../../../arm-none-eabi/lib/armv7-m/libm.a(lib_a-kf_rem_pio2.o)
                0x08004d6c                __kernel_rem_pio2f
 .text.__kernel_sinf
                0x08005414       0xec /usr/local/gcc-arm-none-eabi-5_2-2015q4/bin/../lib/gcc/arm-none-eabi/5.2.1/../../../../arm-none-eabi/lib/armv7-m/libm.a(lib_a-kf_sin.o)
                0x08005414                __kernel_sinf
 .text.matherr  0x08005500        0x4 /usr/local/gcc-arm-none-eabi-5_2-2015q4/bin/../lib/gcc/arm-none-eabi/5.2.1/../../../../arm-none-eabi/lib/armv7-m/libm.a(lib_a-s_matherr.o)
                0x08005500                matherr
 .text.atanf    0x08005504      0x22c /usr/local/gcc-arm-none-eabi-5_2-2015q4/bin/../lib/gcc/arm-none-eabi/5.2.1/../../../../arm-none-eabi/lib/armv7-m/libm.a(lib_a-sf_atan.o)
                0x08005504                atanf
 .text.fabsf    0x08005730        0x8 /usr/local/gcc-arm-none-eabi-5_2-2015q4/bin/../lib/gcc/arm-none-eabi/5.2.1/../../../../arm-none-eabi/lib/armv7-m/libm.a(lib_a-sf_fabs.o)
                0x08005730                fabsf
 .text.floorf   0x08005738       0x8c /usr/local/gcc-arm-none-eabi-5_2-2015q4/bin/../lib/gcc/arm-none-eabi/5.2.1/../../../../arm-none-eabi/lib/armv7-m/libm.a(lib_a-sf_floor.o)
                0x08005738                floorf
 .text.__fpclassifyf
                0x080057c4       0x34 /usr/local/gcc-arm-none-eabi-5_2-2015q4/bin/../lib/gcc/arm-none-eabi/5.2.1/../../../../arm-none-eabi/lib/armv7-m/libm.a(lib_a-sf_fpclassify.o)
                0x080057c4                __fpclassifyf
 .text.scalbnf  0x080057f8       0xb0 /usr/local/gcc-arm-none-eabi-5_2-2015q4/bin/../lib/gcc/arm-none-eabi/5.2.1/../../../../arm-none-eabi/lib/armv7-m/libm.a(lib_a-sf_scalbn.o)
                0x080057f8                scalbnf
 .text.copysignf
                0x080058a8        0xc /usr/local/gcc-arm-none-eabi-5_2-2015q4/bin/../lib/gcc/arm-none-eabi/5.2.1/../../../../arm-none-eabi/lib/armv7-m/libm.a(lib_a-sf_copysign.o)
                0x080058a8                copysignf
 .text.__errno  0x080058b4        0xc /usr/local/gcc-arm-none-eabi-5_2-2015q4/bin/../lib/gcc/arm-none-eabi/5.2.1/../../../../arm-none-eabi/lib/armv7-m/libc_nano.a(lib_a-errno.o)
                0x080058b4                __errno
 *(.rodata)
 .rodata        0x080058c0      0x169 /tmp/ccmkpq6i.ltrans0.ltrans.o
                0x08005944                timerHardware
 *fill*         0x08005a29        0x3 
 .rodata        0x08005a2c       0x28 /tmp/ccmkpq6i.ltrans1.ltrans.o
 .rodata        0x08005a54       0x20 /tmp/ccmkpq6i.ltrans2.ltrans.o
 .rodata        0x08005a74       0x2c /tmp/ccmkpq6i.ltrans4.ltrans.o
                0x08005a78                CONFIG_AXIS_P.lto_priv.79
                0x08005a7b                CONFIG_AXIS_I.lto_priv.80
 *(.rodata*)
 .rodata.str1.1
                0x08005aa0        0xc /tmp/ccmkpq6i.ltrans0.ltrans.o
 .rodata.TWO23  0x08005aac        0x8 /usr/local/gcc-arm-none-eabi-5_2-2015q4/bin/../lib/gcc/arm-none-eabi/5.2.1/../../../../arm-none-eabi/lib/armv7-m/libm.a(lib_a-sf_lrint.o)
 .rodata.str1.4
                0x08005ab4        0x8 /usr/local/gcc-arm-none-eabi-5_2-2015q4/bin/../lib/gcc/arm-none-eabi/5.2.1/../../../../arm-none-eabi/lib/armv7-m/libm.a(lib_a-wf_sqrt.o)
                                  0x6 (size before relaxing)
 .rodata.npio2_hw
                0x08005abc       0x80 /usr/local/gcc-arm-none-eabi-5_2-2015q4/bin/../lib/gcc/arm-none-eabi/5.2.1/../../../../arm-none-eabi/lib/armv7-m/libm.a(lib_a-ef_rem_pio2.o)
 .rodata.two_over_pi
                0x08005b3c      0x318 /usr/local/gcc-arm-none-eabi-5_2-2015q4/bin/../lib/gcc/arm-none-eabi/5.2.1/../../../../arm-none-eabi/lib/armv7-m/libm.a(lib_a-ef_rem_pio2.o)
 .rodata.init_jk
                0x08005e54        0xc /usr/local/gcc-arm-none-eabi-5_2-2015q4/bin/../lib/gcc/arm-none-eabi/5.2.1/../../../../arm-none-eabi/lib/armv7-m/libm.a(lib_a-kf_rem_pio2.o)
 .rodata.PIo2   0x08005e60       0x2c /usr/local/gcc-arm-none-eabi-5_2-2015q4/bin/../lib/gcc/arm-none-eabi/5.2.1/../../../../arm-none-eabi/lib/armv7-m/libm.a(lib_a-kf_rem_pio2.o)
 .rodata.atanlo
                0x08005e8c       0x10 /usr/local/gcc-arm-none-eabi-5_2-2015q4/bin/../lib/gcc/arm-none-eabi/5.2.1/../../../../arm-none-eabi/lib/armv7-m/libm.a(lib_a-sf_atan.o)
 .rodata.atanhi
                0x08005e9c       0x10 /usr/local/gcc-arm-none-eabi-5_2-2015q4/bin/../lib/gcc/arm-none-eabi/5.2.1/../../../../arm-none-eabi/lib/armv7-m/libm.a(lib_a-sf_atan.o)
 .rodata.str1.1
                0x08005eac        0x2 /usr/local/gcc-arm-none-eabi-5_2-2015q4/bin/../lib/gcc/arm-none-eabi/5.2.1/../../../../arm-none-eabi/lib/armv7-m/libc_nano.a(lib_a-impure.o)
 *(.glue_7)
 .glue_7        0x08005eae        0x0 linker stubs
 *(.glue_7t)
 .glue_7t       0x08005eae        0x0 linker stubs
 *(.eh_frame)
 *(.init)
 *(.fini)
                0x08005eb0                . = ALIGN (0x4)
 *fill*         0x08005eae        0x2 
                0x08005eb0                _etext = .

.vfp11_veneer   0x08005eb0        0x0
 .vfp11_veneer  0x08005eb0        0x0 linker stubs

.v4_bx          0x08005eb0        0x0
 .v4_bx         0x08005eb0        0x0 linker stubs

.iplt           0x08005eb0        0x0
 .iplt          0x08005eb0        0x0 obj/NAZE/startup_stm32f10x_md_gcc.o

.rel.dyn        0x08005eb0        0x0
 .rel.iplt      0x08005eb0        0x0 obj/NAZE/startup_stm32f10x_md_gcc.o

.ARM.extab
 *(.ARM.extab* .gnu.linkonce.armextab.*)

.ARM            0x08005eb0        0x0
                0x08005eb0                __exidx_start = .
 *(.ARM.exidx*)
                0x08005eb0                __exidx_end = .

.preinit_array  0x08005eb0        0x0
                [!provide]                PROVIDE (__preinit_array_start, .)
 *(.preinit_array*)
                [!provide]                PROVIDE (__preinit_array_end, .)

.init_array     0x08005eb0        0x0
                [!provide]                PROVIDE (__init_array_start, .)
 *(SORT(.init_array.*))
 *(.init_array*)
                [!provide]                PROVIDE (__init_array_end, .)

.fini_array     0x08005eb0        0x0
                [!provide]                PROVIDE (__fini_array_start, .)
 *(.fini_array*)
 *(SORT(.fini_array.*))
                [!provide]                PROVIDE (__fini_array_end, .)
                0x08005eb0                _sidata = .

.data           0x20000000       0xb0 load address 0x08005eb0
                0x20000000                . = ALIGN (0x4)
                0x20000000                _sdata = .
 *(.data)
 .data          0x20000000       0x24 /tmp/ccmkpq6i.ltrans0.ltrans.o
                0x20000014                failsafeThreshold.lto_priv.101
 .data          0x20000024        0x4 /tmp/ccmkpq6i.ltrans1.ltrans.o
                0x20000024                currentPortState.lto_priv.75
 .data          0x20000028        0x2 /tmp/ccmkpq6i.ltrans2.ltrans.o
 *fill*         0x2000002a        0x2 
 .data          0x2000002c       0x1c /tmp/ccmkpq6i.ltrans3.ltrans.o
                0x2000002c                SystemCoreClock
                0x20000030                hse_value
 *(.data*)
 .data.__fdlib_version
                0x20000048        0x1 /usr/local/gcc-arm-none-eabi-5_2-2015q4/bin/../lib/gcc/arm-none-eabi/5.2.1/../../../../arm-none-eabi/lib/armv7-m/libm.a(lib_a-s_lib_ver.o)
                0x20000048                __fdlib_version
 *fill*         0x20000049        0x3 
 .data.impure_data
                0x2000004c       0x60 /usr/local/gcc-arm-none-eabi-5_2-2015q4/bin/../lib/gcc/arm-none-eabi/5.2.1/../../../../arm-none-eabi/lib/armv7-m/libc_nano.a(lib_a-impure.o)
 .data._impure_ptr
                0x200000ac        0x4 /usr/local/gcc-arm-none-eabi-5_2-2015q4/bin/../lib/gcc/arm-none-eabi/5.2.1/../../../../arm-none-eabi/lib/armv7-m/libc_nano.a(lib_a-impure.o)
                0x200000ac                _impure_ptr
                0x200000b0                . = ALIGN (0x4)
                0x200000b0                _edata = .

.igot.plt       0x200000b0        0x0 load address 0x08005f60
 .igot.plt      0x200000b0        0x0 obj/NAZE/startup_stm32f10x_md_gcc.o
                0x200000b0                . = ALIGN (0x4)

.bss            0x200000b0      0x8ac load address 0x08005f60
                0x200000b0                _sbss = .
                0x200000b0                __bss_start__ = _sbss
 *(.bss)
 .bss           0x200000b0      0x5b2 /tmp/ccmkpq6i.ltrans0.ltrans.o
                0x20000360                core
                0x20000378                pwmFilter.lto_priv.102
                0x20000384                pwmPorts.lto_priv.99
                0x200004d4                motors.lto_priv.98
                0x2000056c                failsafeCnt
 *fill*         0x20000662        0x2 
 .bss           0x20000664      0x12c /tmp/ccmkpq6i.ltrans1.ltrans.o
                0x20000668                systemBeepPtr
                0x20000670                usTicks.lto_priv.93
                0x20000676                i2cErrorCount.lto_priv.82
                0x20000678                ports.lto_priv.81
 .bss           0x20000790      0x105 /tmp/ccmkpq6i.ltrans2.ltrans.o
 *fill*         0x20000895        0x3 
 .bss           0x20000898       0x60 /tmp/ccmkpq6i.ltrans3.ltrans.o
                0x20000898                addr.lto_priv.68
                0x20000899                reg.lto_priv.66
                0x2000089a                writing.lto_priv.70
                0x2000089b                reading.lto_priv.65
                0x2000089c                write_p.lto_priv.71
                0x200008a0                read_p.lto_priv.69
                0x200008a4                bytes.lto_priv.67
                0x200008a5                busy.lto_priv.72
                0x200008a6                error.lto_priv.73
                0x200008a8                I2Cx.lto_priv.64
                0x200008ac                uartPort1.lto_priv.86
 .bss           0x200008f8       0x62 /tmp/ccmkpq6i.ltrans4.ltrans.o
                0x200008f8                rcCommand
                0x20000900                errorGyroI.lto_priv.77
                0x2000090c                angle
                0x20000910                errorAngleI.lto_priv.78
                0x20000918                gyroData
                0x2000091e                dynP8
                0x20000940                axisPID
                0x20000946                dynD8
                0x2000094a                captures.lto_priv.100
 *(.bss*)
 *(COMMON)
                0x2000095c                . = ALIGN (0x4)
 *fill*         0x2000095a        0x2 
                0x2000095c                _ebss = .
                0x2000095c                __bss_end__ = _ebss

._user_heap_stack
                0x2000095c      0x400 load address 0x08005f60
                0x2000095c                . = ALIGN (0x4)
                [!provide]                PROVIDE (end, .)
                [!provide]                PROVIDE (_end, .)
                0x2000095c                . = (. + _Min_Heap_Size)
                0x20000d5c                . = (. + _Min_Stack_Size)
 *fill*         0x2000095c      0x400 
                0x20000d5c                . = ALIGN (0x4)

.memory_b1_text
 *(.mb1text)
 *(.mb1text*)
 *(.mb1rodata)
 *(.mb1rodata*)

/DISCARD/
 libc.a(*)
 libm.a(*)
 libgcc.a(*)

.ARM.attributes
                0x00000000       0x31
 *(.ARM.attributes)
 .ARM.attributes
                0x00000000       0x31 /tmp/ccmkpq6i.ltrans0.ltrans.o
 .ARM.attributes
                0x00000031       0x31 /tmp/ccmkpq6i.ltrans1.ltrans.o
 .ARM.attributes
                0x00000062       0x31 /tmp/ccmkpq6i.ltrans2.ltrans.o
 .ARM.attributes
                0x00000093       0x31 /tmp/ccmkpq6i.ltrans3.ltrans.o
 .ARM.attributes
                0x000000c4       0x31 /tmp/ccmkpq6i.ltrans4.ltrans.o
 .ARM.attributes
                0x000000f5       0x21 obj/NAZE/startup_stm32f10x_md_gcc.o
 .ARM.attributes
                0x00000116       0x2d /usr/local/gcc-arm-none-eabi-5_2-2015q4/bin/../lib/gcc/arm-none-eabi/5.2.1/../../../../arm-none-eabi/lib/armv7-m/libm.a(lib_a-sf_cos.o)
 .ARM.attributes
                0x00000143       0x2d /usr/local/gcc-arm-none-eabi-5_2-2015q4/bin/../lib/gcc/arm-none-eabi/5.2.1/../../../../arm-none-eabi/lib/armv7-m/libm.a(lib_a-sf_lrint.o)
 .ARM.attributes
                0x00000170       0x2d /usr/local/gcc-arm-none-eabi-5_2-2015q4/bin/../lib/gcc/arm-none-eabi/5.2.1/../../../../arm-none-eabi/lib/armv7-m/libm.a(lib_a-sf_sin.o)
 .ARM.attributes
                0x0000019d       0x2d /usr/local/gcc-arm-none-eabi-5_2-2015q4/bin/../lib/gcc/arm-none-eabi/5.2.1/../../../../arm-none-eabi/lib/armv7-m/libm.a(lib_a-wf_atan2.o)
 .ARM.attributes
                0x000001ca       0x2d /usr/local/gcc-arm-none-eabi-5_2-2015q4/bin/../lib/gcc/arm-none-eabi/5.2.1/../../../../arm-none-eabi/lib/armv7-m/libm.a(lib_a-wf_sqrt.o)
 .ARM.attributes
                0x000001f7       0x2d /usr/local/gcc-arm-none-eabi-5_2-2015q4/bin/../lib/gcc/arm-none-eabi/5.2.1/../../../../arm-none-eabi/lib/armv7-m/libm.a(lib_a-ef_atan2.o)
 .ARM.attributes
                0x00000224       0x2d /usr/local/gcc-arm-none-eabi-5_2-2015q4/bin/../lib/gcc/arm-none-eabi/5.2.1/../../../../arm-none-eabi/lib/armv7-m/libm.a(lib_a-ef_rem_pio2.o)
 .ARM.attributes
                0x00000251       0x2d /usr/local/gcc-arm-none-eabi-5_2-2015q4/bin/../lib/gcc/arm-none-eabi/5.2.1/../../../../arm-none-eabi/lib/armv7-m/libm.a(lib_a-ef_sqrt.o)
 .ARM.attributes
                0x0000027e       0x2d /usr/local/gcc-arm-none-eabi-5_2-2015q4/bin/../lib/gcc/arm-none-eabi/5.2.1/../../../../arm-none-eabi/lib/armv7-m/libm.a(lib_a-kf_cos.o)
 .ARM.attributes
                0x000002ab       0x2d /usr/local/gcc-arm-none-eabi-5_2-2015q4/bin/../lib/gcc/arm-none-eabi/5.2.1/../../../../arm-none-eabi/lib/armv7-m/libm.a(lib_a-kf_rem_pio2.o)
 .ARM.attributes
                0x000002d8       0x2d /usr/local/gcc-arm-none-eabi-5_2-2015q4/bin/../lib/gcc/arm-none-eabi/5.2.1/../../../../arm-none-eabi/lib/armv7-m/libm.a(lib_a-kf_sin.o)
 .ARM.attributes
                0x00000305       0x2d /usr/local/gcc-arm-none-eabi-5_2-2015q4/bin/../lib/gcc/arm-none-eabi/5.2.1/../../../../arm-none-eabi/lib/armv7-m/libm.a(lib_a-s_lib_ver.o)
 .ARM.attributes
                0x00000332       0x2d /usr/local/gcc-arm-none-eabi-5_2-2015q4/bin/../lib/gcc/arm-none-eabi/5.2.1/../../../../arm-none-eabi/lib/armv7-m/libm.a(lib_a-s_matherr.o)
 .ARM.attributes
                0x0000035f       0x2d /usr/local/gcc-arm-none-eabi-5_2-2015q4/bin/../lib/gcc/arm-none-eabi/5.2.1/../../../../arm-none-eabi/lib/armv7-m/libm.a(lib_a-sf_atan.o)
 .ARM.attributes
                0x0000038c       0x2d /usr/local/gcc-arm-none-eabi-5_2-2015q4/bin/../lib/gcc/arm-none-eabi/5.2.1/../../../../arm-none-eabi/lib/armv7-m/libm.a(lib_a-sf_fabs.o)
 .ARM.attributes
                0x000003b9       0x2d /usr/local/gcc-arm-none-eabi-5_2-2015q4/bin/../lib/gcc/arm-none-eabi/5.2.1/../../../../arm-none-eabi/lib/armv7-m/libm.a(lib_a-sf_floor.o)
 .ARM.attributes
                0x000003e6       0x2d /usr/local/gcc-arm-none-eabi-5_2-2015q4/bin/../lib/gcc/arm-none-eabi/5.2.1/../../../../arm-none-eabi/lib/armv7-m/libm.a(lib_a-sf_fpclassify.o)
 .ARM.attributes
                0x00000413       0x2d /usr/local/gcc-arm-none-eabi-5_2-2015q4/bin/../lib/gcc/arm-none-eabi/5.2.1/../../../../arm-none-eabi/lib/armv7-m/libm.a(lib_a-sf_scalbn.o)
 .ARM.attributes
                0x00000440       0x2d /usr/local/gcc-arm-none-eabi-5_2-2015q4/bin/../lib/gcc/arm-none-eabi/5.2.1/../../../../arm-none-eabi/lib/armv7-m/libm.a(lib_a-sf_copysign.o)
 .ARM.attributes
                0x0000046d       0x2d /usr/local/gcc-arm-none-eabi-5_2-2015q4/bin/../lib/gcc/arm-none-eabi/5.2.1/../../../../arm-none-eabi/lib/armv7-m/libc_nano.a(lib_a-errno.o)
 .ARM.attributes
                0x0000049a       0x2d /usr/local/gcc-arm-none-eabi-5_2-2015q4/bin/../lib/gcc/arm-none-eabi/5.2.1/../../../../arm-none-eabi/lib/armv7-m/libc_nano.a(lib_a-impure.o)
 .ARM.attributes
                0x000004c7       0x1d /usr/local/gcc-arm-none-eabi-5_2-2015q4/bin/../lib/gcc/arm-none-eabi/5.2.1/armv7-m/libgcc.a(_arm_addsubdf3.o)
 .ARM.attributes
                0x000004e4       0x1d /usr/local/gcc-arm-none-eabi-5_2-2015q4/bin/../lib/gcc/arm-none-eabi/5.2.1/armv7-m/libgcc.a(_arm_muldivdf3.o)
 .ARM.attributes
                0x00000501       0x1d /usr/local/gcc-arm-none-eabi-5_2-2015q4/bin/../lib/gcc/arm-none-eabi/5.2.1/armv7-m/libgcc.a(_arm_truncdfsf2.o)
 .ARM.attributes
                0x0000051e       0x1d /usr/local/gcc-arm-none-eabi-5_2-2015q4/bin/../lib/gcc/arm-none-eabi/5.2.1/armv7-m/libgcc.a(_arm_addsubsf3.o)
 .ARM.attributes
                0x0000053b       0x1d /usr/local/gcc-arm-none-eabi-5_2-2015q4/bin/../lib/gcc/arm-none-eabi/5.2.1/armv7-m/libgcc.a(_arm_muldivsf3.o)
 .ARM.attributes
                0x00000558       0x1d /usr/local/gcc-arm-none-eabi-5_2-2015q4/bin/../lib/gcc/arm-none-eabi/5.2.1/armv7-m/libgcc.a(_arm_cmpsf2.o)
 .ARM.attributes
                0x00000575       0x1d /usr/local/gcc-arm-none-eabi-5_2-2015q4/bin/../lib/gcc/arm-none-eabi/5.2.1/armv7-m/libgcc.a(_arm_fixsfsi.o)
OUTPUT(obj/baseflight_NAZE.elf elf32-littlearm)

.debug_info     0x00000000     0x9c33
 .debug_info    0x00000000     0x48b6 /tmp/ccmkpq6i.ltrans0.ltrans.o
 .debug_info    0x000048b6     0x1a5a /tmp/ccmkpq6i.ltrans1.ltrans.o
 .debug_info    0x00006310     0x1d02 /tmp/ccmkpq6i.ltrans2.ltrans.o
 .debug_info    0x00008012     0x15e5 /tmp/ccmkpq6i.ltrans3.ltrans.o
 .debug_info    0x000095f7      0x63c /tmp/ccmkpq6i.ltrans4.ltrans.o

.debug_abbrev   0x00000000     0x146c
 .debug_abbrev  0x00000000      0x453 /tmp/ccmkpq6i.ltrans0.ltrans.o
 .debug_abbrev  0x00000453      0x4c7 /tmp/ccmkpq6i.ltrans1.ltrans.o
 .debug_abbrev  0x0000091a      0x4e9 /tmp/ccmkpq6i.ltrans2.ltrans.o
 .debug_abbrev  0x00000e03      0x463 /tmp/ccmkpq6i.ltrans3.ltrans.o
 .debug_abbrev  0x00001266      0x206 /tmp/ccmkpq6i.ltrans4.ltrans.o

.debug_loc      0x00000000     0x5bf1
 .debug_loc     0x00000000     0x2d6d /tmp/ccmkpq6i.ltrans0.ltrans.o
 .debug_loc     0x00002d6d      0xb3c /tmp/ccmkpq6i.ltrans1.ltrans.o
 .debug_loc     0x000038a9     0x12cd /tmp/ccmkpq6i.ltrans2.ltrans.o
 .debug_loc     0x00004b76      0xb63 /tmp/ccmkpq6i.ltrans3.ltrans.o
 .debug_loc     0x000056d9      0x518 /tmp/ccmkpq6i.ltrans4.ltrans.o

.debug_aranges  0x00000000       0xa0
 .debug_aranges
                0x00000000       0x20 /tmp/ccmkpq6i.ltrans0.ltrans.o
 .debug_aranges
                0x00000020       0x20 /tmp/ccmkpq6i.ltrans1.ltrans.o
 .debug_aranges
                0x00000040       0x20 /tmp/ccmkpq6i.ltrans2.ltrans.o
 .debug_aranges
                0x00000060       0x20 /tmp/ccmkpq6i.ltrans3.ltrans.o
 .debug_aranges
                0x00000080       0x20 /tmp/ccmkpq6i.ltrans4.ltrans.o

.debug_ranges   0x00000000      0xce8
 .debug_ranges  0x00000000      0x990 /tmp/ccmkpq6i.ltrans0.ltrans.o
 .debug_ranges  0x00000990      0x1f0 /tmp/ccmkpq6i.ltrans1.ltrans.o
 .debug_ranges  0x00000b80      0x118 /tmp/ccmkpq6i.ltrans2.ltrans.o
 .debug_ranges  0x00000c98       0x38 /tmp/ccmkpq6i.ltrans3.ltrans.o
 .debug_ranges  0x00000cd0       0x18 /tmp/ccmkpq6i.ltrans4.ltrans.o

.debug_line     0x00000000     0x1e39
 .debug_line    0x00000000      0xd8d /tmp/ccmkpq6i.ltrans0.ltrans.o
 .debug_line    0x00000d8d      0x613 /tmp/ccmkpq6i.ltrans1.ltrans.o
 .debug_line    0x000013a0      0x420 /tmp/ccmkpq6i.ltrans2.ltrans.o
 .debug_line    0x000017c0      0x4b7 /tmp/ccmkpq6i.ltrans3.ltrans.o
 .debug_line    0x00001c77      0x1c2 /tmp/ccmkpq6i.ltrans4.ltrans.o

.debug_str      0x00000000     0x2bb3
 .debug_str     0x00000000     0x1a10 /tmp/ccmkpq6i.ltrans0.ltrans.o
                               0x1ae6 (size before relaxing)
 .debug_str     0x00001a10      0x548 /tmp/ccmkpq6i.ltrans1.ltrans.o
                                0xc6e (size before relaxing)
 .debug_str     0x00001f58      0x5e2 /tmp/ccmkpq6i.ltrans2.ltrans.o
                                0xd3a (size before relaxing)
 .debug_str     0x0000253a      0x4d5 /tmp/ccmkpq6i.ltrans3.ltrans.o
                                0xd13 (size before relaxing)
 .debug_str     0x00002a0f      0x1a4 /tmp/ccmkpq6i.ltrans4.ltrans.o
                                0x508 (size before relaxing)

.comment        0x00000000       0x6e
 .comment       0x00000000       0x6e /tmp/ccmkpq6i.ltrans0.ltrans.o
                                 0x6f (size before relaxing)
 .comment       0x0000006e       0x6f /tmp/ccmkpq6i.ltrans1.ltrans.o
 .comment       0x0000006e       0x6f /tmp/ccmkpq6i.ltrans2.ltrans.o
 .comment       0x0000006e       0x6f /tmp/ccmkpq6i.ltrans3.ltrans.o
 .comment       0x0000006e       0x6f /tmp/ccmkpq6i.ltrans4.ltrans.o

.debug_frame    0x00000000      0xa44
 .debug_frame   0x00000000       0x30 /tmp/ccmkpq6i.ltrans0.ltrans.o
 .debug_frame   0x00000030      0x278 /tmp/ccmkpq6i.ltrans1.ltrans.o
 .debug_frame   0x000002a8      0x1d0 /tmp/ccmkpq6i.ltrans2.ltrans.o
 .debug_frame   0x00000478      0x1cc /tmp/ccmkpq6i.ltrans3.ltrans.o
 .debug_frame   0x00000644       0x68 /tmp/ccmkpq6i.ltrans4.ltrans.o
 .debug_frame   0x000006ac       0x34 /usr/local/gcc-arm-none-eabi-5_2-2015q4/bin/../lib/gcc/arm-none-eabi/5.2.1/../../../../arm-none-eabi/lib/armv7-m/libm.a(lib_a-sf_cos.o)
 .debug_frame   0x000006e0       0x40 /usr/local/gcc-arm-none-eabi-5_2-2015q4/bin/../lib/gcc/arm-none-eabi/5.2.1/../../../../arm-none-eabi/lib/armv7-m/libm.a(lib_a-sf_lrint.o)
 .debug_frame   0x00000720       0x34 /usr/local/gcc-arm-none-eabi-5_2-2015q4/bin/../lib/gcc/arm-none-eabi/5.2.1/../../../../arm-none-eabi/lib/armv7-m/libm.a(lib_a-sf_sin.o)
 .debug_frame   0x00000754       0x20 /usr/local/gcc-arm-none-eabi-5_2-2015q4/bin/../lib/gcc/arm-none-eabi/5.2.1/../../../../arm-none-eabi/lib/armv7-m/libm.a(lib_a-wf_atan2.o)
 .debug_frame   0x00000774       0x3c /usr/local/gcc-arm-none-eabi-5_2-2015q4/bin/../lib/gcc/arm-none-eabi/5.2.1/../../../../arm-none-eabi/lib/armv7-m/libm.a(lib_a-wf_sqrt.o)
 .debug_frame   0x000007b0       0x3c /usr/local/gcc-arm-none-eabi-5_2-2015q4/bin/../lib/gcc/arm-none-eabi/5.2.1/../../../../arm-none-eabi/lib/armv7-m/libm.a(lib_a-ef_atan2.o)
 .debug_frame   0x000007ec       0x48 /usr/local/gcc-arm-none-eabi-5_2-2015q4/bin/../lib/gcc/arm-none-eabi/5.2.1/../../../../arm-none-eabi/lib/armv7-m/libm.a(lib_a-ef_rem_pio2.o)
 .debug_frame   0x00000834       0x2c /usr/local/gcc-arm-none-eabi-5_2-2015q4/bin/../lib/gcc/arm-none-eabi/5.2.1/../../../../arm-none-eabi/lib/armv7-m/libm.a(lib_a-ef_sqrt.o)
 .debug_frame   0x00000860       0x34 /usr/local/gcc-arm-none-eabi-5_2-2015q4/bin/../lib/gcc/arm-none-eabi/5.2.1/../../../../arm-none-eabi/lib/armv7-m/libm.a(lib_a-kf_cos.o)
 .debug_frame   0x00000894       0x50 /usr/local/gcc-arm-none-eabi-5_2-2015q4/bin/../lib/gcc/arm-none-eabi/5.2.1/../../../../arm-none-eabi/lib/armv7-m/libm.a(lib_a-kf_rem_pio2.o)
 .debug_frame   0x000008e4       0x34 /usr/local/gcc-arm-none-eabi-5_2-2015q4/bin/../lib/gcc/arm-none-eabi/5.2.1/../../../../arm-none-eabi/lib/armv7-m/libm.a(lib_a-kf_sin.o)
 .debug_frame   0x00000918       0x20 /usr/local/gcc-arm-none-eabi-5_2-2015q4/bin/../lib/gcc/arm-none-eabi/5.2.1/../../../../arm-none-eabi/lib/armv7-m/libm.a(lib_a-s_matherr.o)
 .debug_frame   0x00000938       0x30 /usr/local/gcc-arm-none-eabi-5_2-2015q4/bin/../lib/gcc/arm-none-eabi/5.2.1/../../../../arm-none-eabi/lib/armv7-m/libm.a(lib_a-sf_atan.o)
 .debug_frame   0x00000968       0x20 /usr/local/gcc-arm-none-eabi-5_2-2015q4/bin/../lib/gcc/arm-none-eabi/5.2.1/../../../../arm-none-eabi/lib/armv7-m/libm.a(lib_a-sf_fabs.o)
 .debug_frame   0x00000988       0x30 /usr/local/gcc-arm-none-eabi-5_2-2015q4/bin/../lib/gcc/arm-none-eabi/5.2.1/../../../../arm-none-eabi/lib/armv7-m/libm.a(lib_a-sf_floor.o)
 .debug_frame   0x000009b8       0x20 /usr/local/gcc-arm-none-eabi-5_2-2015q4/bin/../lib/gcc/arm-none-eabi/5.2.1/../../../../arm-none-eabi/lib/armv7-m/libm.a(lib_a-sf_fpclassify.o)
 .debug_frame   0x000009d8       0x2c /usr/local/gcc-arm-none-eabi-5_2-2015q4/bin/../lib/gcc/arm-none-eabi/5.2.1/../../../../arm-none-eabi/lib/armv7-m/libm.a(lib_a-sf_scalbn.o)
 .debug_frame   0x00000a04       0x20 /usr/local/gcc-arm-none-eabi-5_2-2015q4/bin/../lib/gcc/arm-none-eabi/5.2.1/../../../../arm-none-eabi/lib/armv7-m/libm.a(lib_a-sf_copysign.o)
 .debug_frame   0x00000a24       0x20 /usr/local/gcc-arm-none-eabi-5_2-2015q4/bin/../lib/gcc/arm-none-eabi/5.2.1/../../../../arm-none-eabi/lib/armv7-m/libc_nano.a(lib_a-errno.o)
